; Function Attrs: nounwind uwtable
define internal noundef i32 @cw_chunked_init(ptr noundef captures(none) %0, ptr noundef readonly captures(none) %1) #0 {
  %3 = getelementptr inbounds nuw i8, ptr %1, i64 16
  %4 = load ptr, ptr %3, align 8, !tbaa !86
  %5 = getelementptr inbounds nuw i8, ptr %0, i64 457
  %6 = load i32, ptr %5, align 1
  %7 = or i32 %6, 4096
  store i32 %7, ptr %5, align 1
  %8 = getelementptr inbounds nuw i8, ptr %4, i64 80
  store i8 0, ptr %8, align 8, !tbaa !3
  %9 = getelementptr inbounds nuw i8, ptr %4, i64 40
  store i32 0, ptr %9, align 8, !tbaa !12
  %10 = getelementptr inbounds nuw i8, ptr %4, i64 44
  store i32 0, ptr %10, align 4, !tbaa !13
  %11 = getelementptr inbounds nuw i8, ptr %4, i64 48
  tail call void @Curl_dyn_init(ptr noundef nonnull %11, i64 noundef 4096) #8
  %12 = getelementptr inbounds nuw i8, ptr %4, i64 98
  %13 = load i8, ptr %12, align 2
  %14 = and i8 %13, -2
  store i8 %14, ptr %12, align 2
  ret i32 0
}